; Function Attrs: mustprogress uwtable
define void @_ZN9grpc_core38RegisterExperimentConstraintsValidatorEN4absl12lts_2024072212AnyInvocableIFbNS_18ExperimentMetadataEEEE(ptr noundef %0) local_unnamed_addr #0 {
  %2 = tail call noalias noundef nonnull dereferenceable(32) ptr @_Znwm(i64 noundef 32) #28
  %3 = getelementptr inbounds nuw i8, ptr %0, i64 16
  %4 = load ptr, ptr %3, align 16, !tbaa !152
  tail call void %4(i1 noundef zeroext false, ptr noundef nonnull align 16 dereferenceable(32) %0, ptr noundef nonnull align 16 dereferenceable(32) %2) #26
  %5 = load ptr, ptr %3, align 16, !tbaa !152
  %6 = getelementptr inbounds nuw i8, ptr %2, i64 16
  store ptr %5, ptr %6, align 16, !tbaa !152
  %7 = getelementptr inbounds nuw i8, ptr %0, i64 24
  %8 = load ptr, ptr %7, align 8, !tbaa !43
  %9 = getelementptr inbounds nuw i8, ptr %2, i64 24
  store ptr %8, ptr %9, align 8, !tbaa !43
  store ptr @_ZN4absl12lts_2024072222internal_any_invocable12EmptyManagerENS1_14FunctionToCallEPNS1_15TypeErasedStateES4_, ptr %3, align 16, !tbaa !152
  store ptr null, ptr %7, align 8, !tbaa !43
  store ptr %2, ptr @_ZN9grpc_core12_GLOBAL__N_122g_check_constraints_cbE, align 8, !tbaa !41
  ret void
}